; Function Attrs: mustprogress uwtable
define void @_ZNK3nix18PluginFilesSetting5parseERKNSt7__cxx1112basic_stringIcSt11char_traitsIcESaIcEEE(ptr dead_on_unwind noalias writable sret(%"class.std::__cxx11::list") align 8 %0, ptr noundef nonnull align 8 dereferenceable(186) %1, ptr noundef nonnull align 8 dereferenceable(32) %2) unnamed_addr #5 align 2 personality ptr @__gxx_personality_v0 {
  %4 = alloca %"class.std::__cxx11::basic_string", align 8
  %5 = alloca %"class.std::allocator.5", align 1
  %6 = getelementptr inbounds i8, ptr %1, i64 185
  %7 = load i8, ptr %6, align 1
  %8 = and i8 %7, 1
  %.not = icmp eq i8 %8, 0
  br i1 %.not, label %17, label %9

9:                                                ; preds = %3
  %10 = tail call ptr @__cxa_allocate_exception(i64 376) #28
  call void @_ZNSaIcEC1Ev(ptr noundef nonnull align 1 dereferenceable(1) %5) #28
  invoke void @_ZNSt7__cxx1112basic_stringIcSt11char_traitsIcESaIcEEC2IS3_EEPKcRKS3_(ptr noundef nonnull align 8 dereferenceable(32) %4, ptr noundef nonnull @.str.240, ptr noundef nonnull align 1 dereferenceable(1) %5)
          to label %11 unwind label %.thread

11:                                               ; preds = %9
  invoke void @_ZN3nix10UsageErrorCI2NS_9BaseErrorEIJEEERKNSt7__cxx1112basic_stringIcSt11char_traitsIcESaIcEEEDpRKT_(ptr noundef nonnull align 8 dereferenceable(376) %10, ptr noundef nonnull align 8 dereferenceable(32) %4)
          to label %12 unwind label %14

12:                                               ; preds = %11
  invoke void @__cxa_throw(ptr nonnull %10, ptr nonnull @_ZTIN3nix10UsageErrorE, ptr nonnull @_ZN3nix10UsageErrorD2Ev) #32
          to label %19 unwind label %14

.thread:                                          ; preds = %9
  %13 = landingpad { ptr, i32 }
          cleanup
  call void @_ZNSaIcED1Ev(ptr noundef nonnull align 1 dereferenceable(1) %5) #28
  br label %16

14:                                               ; preds = %11, %12
  %.0 = phi i1 [ false, %12 ], [ true, %11 ]
  %15 = landingpad { ptr, i32 }
          cleanup
  call void @_ZNSt7__cxx1112basic_stringIcSt11char_traitsIcESaIcEED2Ev(ptr noundef nonnull align 8 dereferenceable(32) %4) #28
  call void @_ZNSaIcED1Ev(ptr noundef nonnull align 1 dereferenceable(1) %5) #28
  br i1 %.0, label %16, label %18

16:                                               ; preds = %.thread, %14
  %.pn10 = phi { ptr, i32 } [ %13, %.thread ], [ %15, %14 ]
  call void @__cxa_free_exception(ptr %10) #28
  br label %18

17:                                               ; preds = %3
  tail call void @_ZNK3nix11BaseSettingINSt7__cxx114listINS1_12basic_stringIcSt11char_traitsIcESaIcEEESaIS7_EEEE5parseERKS7_(ptr dead_on_unwind writable sret(%"class.std::__cxx11::list") align 8 %0, ptr noundef nonnull align 8 dereferenceable(185) %1, ptr noundef nonnull align 8 dereferenceable(32) %2)
  ret void

18:                                               ; preds = %14, %16
  %.pn9 = phi { ptr, i32 } [ %15, %14 ], [ %.pn10, %16 ]
  resume { ptr, i32 } %.pn9

19:                                               ; preds = %12
  unreachable
}